; Function Attrs: mustprogress uwtable
define hidden void @_ZN12opencv_caffe16SoftmaxParameterC2ERKS0_(ptr noundef nonnull align 8 dereferenceable(32) initializes((0, 24)) %0, ptr noundef nonnull readonly align 8 captures(none) dereferenceable(32) %1) unnamed_addr #3 align 2 personality ptr @__gxx_personality_v0 {
.noexc:
  %2 = getelementptr inbounds nuw i8, ptr %0, i64 8
  store i64 0, ptr %2, align 8, !tbaa !8
  store ptr getelementptr inbounds nuw inrange(-16, 152) (i8, ptr @_ZTVN12opencv_caffe16SoftmaxParameterE, i64 16), ptr %0, align 8, !tbaa !11
  %3 = getelementptr inbounds nuw i8, ptr %0, i64 16
  %4 = getelementptr inbounds nuw i8, ptr %1, i64 16
  %5 = load i32, ptr %4, align 8, !tbaa !36
  store i32 %5, ptr %3, align 8, !tbaa !36
  %6 = getelementptr inbounds nuw i8, ptr %0, i64 20
  store i32 0, ptr %6, align 4, !tbaa !18
  %7 = getelementptr inbounds nuw i8, ptr %1, i64 8
  %8 = load i64, ptr %7, align 8, !tbaa !8
  %9 = and i64 %8, 1
  %.not = icmp eq i64 %9, 0
  br i1 %.not, label %_ZN6google8protobuf8internal16InternalMetadata9MergeFromINS0_15UnknownFieldSetEEEvRKS2_.exit, label %.noexc5

.noexc5:                                          ; preds = %.noexc
  %10 = and i64 %8, -4
  %11 = inttoptr i64 %10 to ptr
  %12 = getelementptr inbounds nuw i8, ptr %11, i64 8
  invoke void @_ZN6google8protobuf8internal16InternalMetadata11DoMergeFromINS0_15UnknownFieldSetEEEvRKT_(ptr noundef nonnull align 8 dereferenceable(8) %2, ptr noundef nonnull align 8 dereferenceable(24) %12)
          to label %_ZN6google8protobuf8internal16InternalMetadata9MergeFromINS0_15UnknownFieldSetEEEvRKS2_.exit unwind label %16

_ZN6google8protobuf8internal16InternalMetadata9MergeFromINS0_15UnknownFieldSetEEEvRKS2_.exit: ; preds = %.noexc, %.noexc5
  %13 = getelementptr inbounds nuw i8, ptr %0, i64 24
  %14 = getelementptr inbounds nuw i8, ptr %1, i64 24
  %15 = load i64, ptr %14, align 8
  store i64 %15, ptr %13, align 8
  ret void

16:                                               ; preds = %.noexc5
  %17 = landingpad { ptr, i32 }
          cleanup
  tail call void @_ZN6google8protobuf11MessageLiteD2Ev(ptr noundef nonnull align 8 dereferenceable(16) %0) #25
  resume { ptr, i32 } %17
}